target datalayout = "e-m:e-p270:32:32-p271:32:32-p272:64:64-i64:64-i128:128-f80:128-n8:16:32:64-S128"
target triple = "x86_64-pc-linux-gnu"

%struct.slurm_conf_t = type { i64, ptr, i16, ptr, ptr, ptr, ptr, ptr, i16, ptr, ptr, ptr, ptr, ptr, ptr, ptr, i16, ptr, ptr, ptr, ptr, i16, ptr, ptr, ptr, i64, ptr, ptr, ptr, ptr, i16, ptr, ptr, i16, i32, ptr, i32, ptr, i32, i32, ptr, ptr, i64, i64, ptr, i16, i16, ptr, i32, i32, ptr, i32, ptr, i32, i16, i16, i16, ptr, i16, i16, ptr, ptr, i32, i16, i16, ptr, i32, i16, ptr, ptr, ptr, ptr, i16, ptr, ptr, ptr, ptr, i32, ptr, ptr, ptr, ptr, i16, i16, ptr, i32, i32, i32, i16, i16, ptr, ptr, i16, ptr, ptr, i32, i32, i32, i32, i32, i64, i32, i32, i16, ptr, ptr, i32, ptr, ptr, ptr, i16, i32, ptr, ptr, i16, ptr, ptr, i32, i16, ptr, ptr, ptr, ptr, i32, i32, i16, i16, i32, ptr, i16, ptr, i32, i32, i32, i32, i32, i32, ptr, i16, ptr, ptr, i32, i16, ptr, i32, i16, i16, ptr, ptr, ptr, i16, ptr, ptr, ptr, ptr, i16, i16, ptr, i16, ptr, i16, ptr, i16, ptr, i16, ptr, ptr, ptr, ptr, i16, ptr, ptr, ptr, i32, ptr, i32, ptr, ptr, i16, ptr, ptr, i32, i16, ptr, ptr, i16, i16, ptr, i16, ptr, ptr, ptr, i32, ptr, i16, i16, ptr, ptr, ptr, ptr, ptr, ptr, ptr, ptr, i16, i32, i16, ptr, ptr, ptr, ptr, i32, ptr, ptr, ptr, i16, ptr, ptr, ptr, i16, ptr, i16, ptr, i16, i16, ptr }
%struct.xcgroup_t = type { ptr, ptr, ptr, i32, i32, i32 }

@plugin_type = external constant [0 x i8], align 1
@slurm_conf = dso_local global %struct.slurm_conf_t zeroinitializer, align 8
@.str.18 = private unnamed_addr constant [6 x i8] c"%s/%s\00", align 1
@.str.19 = private unnamed_addr constant [74 x i8] c"%s: %s: CGROUP: unable to build filepath for '%s' and parameter '%s' : %m\00", align 1
@__func__.common_cgroup_set_uint64_param = private unnamed_addr constant [31 x i8] c"common_cgroup_set_uint64_param\00", align 1
@.str.32 = private unnamed_addr constant [63 x i8] c"%s: %s: CGROUP: unable to set parameter '%s' to '%lu' for '%s'\00", align 1
@.str.33 = private unnamed_addr constant [49 x i8] c"%s: %s: %s: parameter '%s' set to '%lu' for '%s'\00", align 1

; Function Attrs: nounwind uwtable
define dso_local i32 @common_cgroup_set_uint64_param(ptr noundef %0, ptr noundef %1, i64 noundef %2) #0 {
  %4 = alloca i32, align 4
  %5 = alloca ptr, align 8
  %6 = alloca ptr, align 8
  %7 = alloca i64, align 8
  %8 = alloca i32, align 4
  %9 = alloca [4096 x i8], align 16
  %10 = alloca ptr, align 8
  %11 = alloca i32, align 4
  store ptr %0, ptr %5, align 8
  store ptr %1, ptr %6, align 8
  store i64 %2, ptr %7, align 8
  call void @llvm.lifetime.start.p0(i64 4, ptr %8) #6
  store i32 -1, ptr %8, align 4
  call void @llvm.lifetime.start.p0(i64 4096, ptr %9) #6
  call void @llvm.lifetime.start.p0(i64 8, ptr %10) #6
  %12 = load ptr, ptr %5, align 8
  %13 = getelementptr inbounds nuw %struct.xcgroup_t, ptr %12, i32 0, i32 2
  %14 = load ptr, ptr %13, align 8
  store ptr %14, ptr %10, align 8
  %15 = getelementptr inbounds [4096 x i8], ptr %9, i64 0, i64 0
  %16 = load ptr, ptr %10, align 8
  %17 = load ptr, ptr %6, align 8
  %18 = call i32 (ptr, i64, ptr, ...) @snprintf(ptr noundef %15, i64 noundef 4096, ptr noundef @.str.18, ptr noundef %16, ptr noundef %17) #6
  %19 = icmp sge i32 %18, 4096
  br i1 %19, label %20, label %39

20:                                               ; preds = %3
  br label %21

21:                                               ; preds = %20
  %22 = load i64, ptr getelementptr inbounds nuw (%struct.slurm_conf_t, ptr @slurm_conf, i32 0, i32 42), align 8
  %23 = and i64 %22, 36028797018963968
  %24 = icmp ne i64 %23, 0
  br i1 %24, label %25, label %35

25:                                               ; preds = %21
  br label %26

26:                                               ; preds = %25
  %27 = call i32 @get_log_level()
  %28 = icmp sge i32 %27, 4
  br i1 %28, label %29, label %32

29:                                               ; preds = %26
  %30 = load ptr, ptr %10, align 8
  %31 = load ptr, ptr %6, align 8
  call void (i32, ptr, ...) @log_var(i32 noundef 4, ptr noundef @.str.19, ptr noundef @plugin_type, ptr noundef @__func__.common_cgroup_set_uint64_param, ptr noundef %30, ptr noundef %31)
  br label %32

32:                                               ; preds = %29, %26
  br label %33

33:                                               ; preds = %32
  br label %34

34:                                               ; preds = %33
  br label %35

35:                                               ; preds = %34, %21
  br label %36

36:                                               ; preds = %35
  br label %37

37:                                               ; preds = %36
  %38 = load i32, ptr %8, align 4
  store i32 %38, ptr %4, align 4
  store i32 1, ptr %11, align 4
  br label %79

39:                                               ; preds = %3
  %40 = getelementptr inbounds [4096 x i8], ptr %9, i64 0, i64 0
  %41 = call i32 @common_file_write_uints(ptr noundef %40, ptr noundef %7, i32 noundef 1, i32 noundef 64)
  store i32 %41, ptr %8, align 4
  %42 = load i32, ptr %8, align 4
  %43 = icmp ne i32 %42, 0
  br i1 %43, label %44, label %63

44:                                               ; preds = %39
  br label %45

45:                                               ; preds = %44
  %46 = load i64, ptr getelementptr inbounds nuw (%struct.slurm_conf_t, ptr @slurm_conf, i32 0, i32 42), align 8
  %47 = and i64 %46, 36028797018963968
  %48 = icmp ne i64 %47, 0
  br i1 %48, label %49, label %60

49:                                               ; preds = %45
  br label %50

50:                                               ; preds = %49
  %51 = call i32 @get_log_level()
  %52 = icmp sge i32 %51, 4
  br i1 %52, label %53, label %57

53:                                               ; preds = %50
  %54 = load ptr, ptr %6, align 8
  %55 = load i64, ptr %7, align 8
  %56 = load ptr, ptr %10, align 8
  call void (i32, ptr, ...) @log_var(i32 noundef 4, ptr noundef @.str.32, ptr noundef @plugin_type, ptr noundef @__func__.common_cgroup_set_uint64_param, ptr noundef %54, i64 noundef %55, ptr noundef %56)
  br label %57

57:                                               ; preds = %53, %50
  br label %58

58:                                               ; preds = %57
  br label %59

59:                                               ; preds = %58
  br label %60

60:                                               ; preds = %59, %45
  br label %61

61:                                               ; preds = %60
  br label %62

62:                                               ; preds = %61
  br label %77

63:                                               ; preds = %39
  br label %64

64:                                               ; preds = %63
  br label %65

65:                                               ; preds = %64
  %66 = call i32 @get_log_level()
  %67 = icmp sge i32 %66, 7
  br i1 %67, label %68, label %72

68:                                               ; preds = %65
  %69 = load ptr, ptr %6, align 8
  %70 = load i64, ptr %7, align 8
  %71 = load ptr, ptr %10, align 8
  call void (i32, ptr, ...) @log_var(i32 noundef 7, ptr noundef @.str.33, ptr noundef @plugin_type, ptr noundef @__func__.common_cgroup_set_uint64_param, ptr noundef @__func__.common_cgroup_set_uint64_param, ptr noundef %69, i64 noundef %70, ptr noundef %71)
  br label %72

72:                                               ; preds = %68, %65
  br label %73

73:                                               ; preds = %72
  br label %74

74:                                               ; preds = %73
  br label %75

75:                                               ; preds = %74
  br label %76

76:                                               ; preds = %75
  br label %77

77:                                               ; preds = %76, %62
  %78 = load i32, ptr %8, align 4
  store i32 %78, ptr %4, align 4
  store i32 1, ptr %11, align 4
  br label %79

79:                                               ; preds = %77, %37
  call void @llvm.lifetime.end.p0(i64 8, ptr %10) #6
  call void @llvm.lifetime.end.p0(i64 4096, ptr %9) #6
  call void @llvm.lifetime.end.p0(i64 4, ptr %8) #6
  %80 = load i32, ptr %4, align 4
  ret i32 %80
}