; Function Attrs: nounwind uwtable
define dso_local i32 @common_cgroup_set_uint64_param(ptr noundef readonly captures(none) %0, ptr noundef %1, i64 noundef %2) local_unnamed_addr #0 {
  %4 = alloca i64, align 8
  %5 = alloca [4096 x i8], align 16
  store i64 %2, ptr %4, align 8
  call void @llvm.lifetime.start.p0(i64 4096, ptr nonnull %5) #8
  %6 = getelementptr inbounds nuw i8, ptr %0, i64 16
  %7 = load ptr, ptr %6, align 8
  %8 = call i32 (ptr, i64, ptr, ...) @snprintf(ptr noundef nonnull dereferenceable(1) %5, i64 noundef 4096, ptr noundef nonnull @.str.18, ptr noundef %7, ptr noundef %1) #8
  %9 = icmp sgt i32 %8, 4095
  br i1 %9, label %10, label %17

10:                                               ; preds = %3
  %11 = load i64, ptr getelementptr inbounds nuw (i8, ptr @slurm_conf, i64 320), align 8
  %12 = and i64 %11, 36028797018963968
  %.not13 = icmp eq i64 %12, 0
  br i1 %.not13, label %30, label %13

13:                                               ; preds = %10
  %14 = tail call i32 @get_log_level() #8
  %15 = icmp sgt i32 %14, 3
  br i1 %15, label %16, label %30

16:                                               ; preds = %13
  tail call void (i32, ptr, ...) @log_var(i32 noundef 4, ptr noundef nonnull @.str.19, ptr noundef nonnull @plugin_type, ptr noundef nonnull @__func__.common_cgroup_set_uint64_param, ptr noundef %7, ptr noundef %1) #8
  br label %30

17:                                               ; preds = %3
  %18 = call i32 @common_file_write_uints(ptr noundef nonnull %5, ptr noundef nonnull %4, i32 noundef 1, i32 noundef 64)
  %.not = icmp eq i32 %18, 0
  br i1 %.not, label %26, label %19

19:                                               ; preds = %17
  %20 = load i64, ptr getelementptr inbounds nuw (i8, ptr @slurm_conf, i64 320), align 8
  %21 = and i64 %20, 36028797018963968
  %.not12 = icmp eq i64 %21, 0
  br i1 %.not12, label %30, label %22

22:                                               ; preds = %19
  %23 = call i32 @get_log_level() #8
  %24 = icmp sgt i32 %23, 3
  br i1 %24, label %25, label %30

25:                                               ; preds = %22
  call void (i32, ptr, ...) @log_var(i32 noundef 4, ptr noundef nonnull @.str.32, ptr noundef nonnull @plugin_type, ptr noundef nonnull @__func__.common_cgroup_set_uint64_param, ptr noundef %1, i64 noundef %2, ptr noundef %7) #8
  br label %30

26:                                               ; preds = %17
  %27 = call i32 @get_log_level() #8
  %28 = icmp sgt i32 %27, 6
  br i1 %28, label %29, label %30

29:                                               ; preds = %26
  call void (i32, ptr, ...) @log_var(i32 noundef 7, ptr noundef nonnull @.str.33, ptr noundef nonnull @plugin_type, ptr noundef nonnull @__func__.common_cgroup_set_uint64_param, ptr noundef nonnull @__func__.common_cgroup_set_uint64_param, ptr noundef %1, i64 noundef %2, ptr noundef %7) #8
  br label %30

30:                                               ; preds = %22, %25, %19, %29, %26, %10, %16, %13
  %.0 = phi i32 [ -1, %13 ], [ -1, %16 ], [ -1, %10 ], [ 0, %26 ], [ 0, %29 ], [ %18, %19 ], [ %18, %25 ], [ %18, %22 ]
  call void @llvm.lifetime.end.p0(i64 4096, ptr nonnull %5) #8
  ret i32 %.0
}